target datalayout = "e-m:e-p270:32:32-p271:32:32-p272:64:64-i64:64-i128:128-f80:128-n8:16:32:64-S128"
target triple = "x86_64-pc-linux-gnu"

@.str.298 = private unnamed_addr constant [2 x i8] c"0\00", align 1
@.str.322 = private unnamed_addr constant [5 x i8] c"data\00", align 1
@.str.323 = private unnamed_addr constant [20 x i8] c"expected_pem_header\00", align 1
@check_unprotected_legacy_PEM.expected_pem_header = internal global [80 x i8] zeroinitializer, align 16
@.str.334 = private unnamed_addr constant [103 x i8] c"BIO_snprintf(expected_pem_header, sizeof(expected_pem_header), \22-----BEGIN %s PRIVATE KEY-----\22, type)\00", align 1
@.str.335 = private unnamed_addr constant [31 x i8] c"-----BEGIN %s PRIVATE KEY-----\00", align 1

; Function Attrs: nounwind uwtable
define internal i32 @check_unprotected_legacy_PEM(ptr noundef %0, i32 noundef %1, ptr noundef %2, ptr noundef %3, i64 noundef %4) #0 {
  %6 = alloca ptr, align 8
  %7 = alloca i32, align 4
  %8 = alloca ptr, align 8
  %9 = alloca ptr, align 8
  %10 = alloca i64, align 8
  store ptr %0, ptr %6, align 8, !tbaa !4
  store i32 %1, ptr %7, align 4, !tbaa !9
  store ptr %2, ptr %8, align 8, !tbaa !4
  store ptr %3, ptr %9, align 8, !tbaa !31
  store i64 %4, ptr %10, align 8, !tbaa !27
  %11 = load ptr, ptr %6, align 8, !tbaa !4
  %12 = load i32, ptr %7, align 4, !tbaa !9
  %13 = load ptr, ptr %8, align 8, !tbaa !4
  %14 = call i32 (ptr, i64, ptr, ...) @BIO_snprintf(ptr noundef @check_unprotected_legacy_PEM.expected_pem_header, i64 noundef 80, ptr noundef @.str.335, ptr noundef %13)
  %15 = call i32 @test_int_gt(ptr noundef %11, i32 noundef %12, ptr noundef @.str.334, ptr noundef @.str.298, i32 noundef %14, i32 noundef 0)
  %16 = icmp ne i32 %15, 0
  br i1 %16, label %17, label %25

17:                                               ; preds = %5
  %18 = load ptr, ptr %6, align 8, !tbaa !4
  %19 = load i32, ptr %7, align 4, !tbaa !9
  %20 = load ptr, ptr %9, align 8, !tbaa !31
  %21 = call i64 @strlen(ptr noundef @check_unprotected_legacy_PEM.expected_pem_header) #8
  %22 = call i64 @strlen(ptr noundef @check_unprotected_legacy_PEM.expected_pem_header) #8
  %23 = call i32 @test_strn_eq(ptr noundef %18, i32 noundef %19, ptr noundef @.str.322, ptr noundef @.str.323, ptr noundef %20, i64 noundef %21, ptr noundef @check_unprotected_legacy_PEM.expected_pem_header, i64 noundef %22)
  %24 = icmp ne i32 %23, 0
  br label %25

25:                                               ; preds = %17, %5
  %26 = phi i1 [ false, %5 ], [ %24, %17 ]
  %27 = zext i1 %26 to i32
  ret i32 %27
}